target datalayout = "e-m:e-p270:32:32-p271:32:32-p272:64:64-i64:64-i128:128-f80:128-n8:16:32:64-S128"
target triple = "x86_64-pc-linux-gnu"

%struct.expert_field = type { i32, i32 }

@.str.201 = private unnamed_addr constant [9 x i8] c"reserved\00", align 1
@hf_oran_blockScaler = internal global i32 0, align 4
@hf_oran_compBitWidth = internal global i32 0, align 4
@hf_oran_compShift = internal global i32 0, align 4
@hf_oran_bfwCompParam = internal global i32 0, align 4
@.str.265 = private unnamed_addr constant [13 x i8] c"bfwCompParam\00", align 1
@hf_oran_exponent = internal global i32 0, align 4
@ett_oran_bfwcompparam = internal global i32 0, align 4
@ei_oran_unsupported_bfw_compression_method = internal global %struct.expert_field zeroinitializer, align 4
@.str.1165 = private unnamed_addr constant [1 x i8] zeroinitializer, align 1
@.str.1262 = private unnamed_addr constant [11 x i8] c" (meth=%s)\00", align 1
@.str.1263 = private unnamed_addr constant [13 x i8] c" exponent=%u\00", align 1
@.str.1264 = private unnamed_addr constant [61 x i8] c"BFW Compression method %u (%s) not decompressed by dissector\00", align 1

; Function Attrs: null_pointer_is_valid sspstrong uwtable
define internal i32 @dissect_bfwCompParam(ptr noundef %0, ptr noundef %1, ptr noundef %2, i32 noundef %3, ptr noundef %4, i32 noundef %5, ptr noundef %6, ptr noundef %7) #0 {
  %9 = alloca i32, align 4
  %10 = alloca ptr, align 8
  %11 = alloca ptr, align 8
  %12 = alloca ptr, align 8
  %13 = alloca i32, align 4
  %14 = alloca ptr, align 8
  %15 = alloca i32, align 4
  %16 = alloca ptr, align 8
  %17 = alloca ptr, align 8
  %18 = alloca ptr, align 8
  %19 = alloca ptr, align 8
  store ptr %0, ptr %10, align 8
  store ptr %1, ptr %11, align 8
  store ptr %2, ptr %12, align 8
  store i32 %3, ptr %13, align 4
  store ptr %4, ptr %14, align 8
  store i32 %5, ptr %15, align 4
  store ptr %6, ptr %16, align 8
  store ptr %7, ptr %17, align 8
  %20 = load i32, ptr %15, align 4
  %21 = icmp eq i32 %20, 0
  br i1 %21, label %22, label %25

22:                                               ; preds = %8
  %23 = load ptr, ptr %17, align 8
  store i8 1, ptr %23, align 1
  %24 = load i32, ptr %13, align 4
  store i32 %24, ptr %9, align 4
  br label %90

25:                                               ; preds = %8
  call void @llvm.lifetime.start.p0(i64 8, ptr %18) #12
  %26 = load ptr, ptr %11, align 8
  %27 = load i32, ptr @hf_oran_bfwCompParam, align 4
  %28 = load ptr, ptr %10, align 8
  %29 = load i32, ptr %13, align 4
  %30 = call ptr (ptr, i32, ptr, i32, i32, ptr, ptr, ...) @proto_tree_add_string_format(ptr noundef %26, i32 noundef %27, ptr noundef %28, i32 noundef %29, i32 noundef 1, ptr noundef @.str.1165, ptr noundef @.str.265)
  store ptr %30, ptr %18, align 8
  call void @llvm.lifetime.start.p0(i64 8, ptr %19) #12
  %31 = load ptr, ptr %18, align 8
  %32 = load i32, ptr @ett_oran_bfwcompparam, align 4
  %33 = call ptr @proto_item_add_subtree(ptr noundef %31, i32 noundef %32)
  store ptr %33, ptr %19, align 8
  %34 = load ptr, ptr %18, align 8
  %35 = load i32, ptr %15, align 4
  %36 = call ptr @val_to_str_const(i32 noundef %35, ptr noundef @bfw_comp_headers_comp_meth, ptr noundef @.str.201)
  call void (ptr, ptr, ...) @proto_item_append_text(ptr noundef %34, ptr noundef @.str.1262, ptr noundef %36)
  %37 = load ptr, ptr %17, align 8
  store i8 0, ptr %37, align 1
  %38 = load i32, ptr %15, align 4
  switch i32 %38, label %73 [
    i32 1, label %39
    i32 2, label %52
    i32 3, label %60
    i32 4, label %74
    i32 5, label %74
  ]

39:                                               ; preds = %25
  %40 = load ptr, ptr %19, align 8
  %41 = load i32, ptr @hf_oran_exponent, align 4
  %42 = load ptr, ptr %10, align 8
  %43 = load i32, ptr %13, align 4
  %44 = load ptr, ptr %16, align 8
  %45 = call ptr @proto_tree_add_item_ret_uint(ptr noundef %40, i32 noundef %41, ptr noundef %42, i32 noundef %43, i32 noundef 1, i32 noundef 0, ptr noundef %44)
  %46 = load ptr, ptr %18, align 8
  %47 = load ptr, ptr %16, align 8
  %48 = load i32, ptr %47, align 4
  call void (ptr, ptr, ...) @proto_item_append_text(ptr noundef %46, ptr noundef @.str.1263, i32 noundef %48)
  %49 = load ptr, ptr %17, align 8
  store i8 1, ptr %49, align 1
  %50 = load i32, ptr %13, align 4
  %51 = add i32 %50, 1
  store i32 %51, ptr %13, align 4
  br label %74

52:                                               ; preds = %25
  %53 = load ptr, ptr %19, align 8
  %54 = load i32, ptr @hf_oran_blockScaler, align 4
  %55 = load ptr, ptr %10, align 8
  %56 = load i32, ptr %13, align 4
  %57 = call ptr @proto_tree_add_item(ptr noundef %53, i32 noundef %54, ptr noundef %55, i32 noundef %56, i32 noundef 1, i32 noundef 0)
  %58 = load i32, ptr %13, align 4
  %59 = add i32 %58, 1
  store i32 %59, ptr %13, align 4
  br label %74

60:                                               ; preds = %25
  %61 = load ptr, ptr %19, align 8
  %62 = load i32, ptr @hf_oran_compBitWidth, align 4
  %63 = load ptr, ptr %10, align 8
  %64 = load i32, ptr %13, align 4
  %65 = call ptr @proto_tree_add_item(ptr noundef %61, i32 noundef %62, ptr noundef %63, i32 noundef %64, i32 noundef 1, i32 noundef 0)
  %66 = load ptr, ptr %19, align 8
  %67 = load i32, ptr @hf_oran_compShift, align 4
  %68 = load ptr, ptr %10, align 8
  %69 = load i32, ptr %13, align 4
  %70 = call ptr @proto_tree_add_item(ptr noundef %66, i32 noundef %67, ptr noundef %68, i32 noundef %69, i32 noundef 1, i32 noundef 0)
  %71 = load i32, ptr %13, align 4
  %72 = add i32 %71, 1
  store i32 %72, ptr %13, align 4
  br label %74

73:                                               ; preds = %25
  br label %74

74:                                               ; preds = %73, %25, %25, %60, %52, %39
  %75 = load ptr, ptr %17, align 8
  %76 = load i8, ptr %75, align 1, !range !8, !noundef !9
  %77 = trunc i8 %76 to i1
  br i1 %77, label %88, label %78

78:                                               ; preds = %74
  %79 = load ptr, ptr %14, align 8
  %80 = icmp ne ptr %79, null
  br i1 %80, label %81, label %88

81:                                               ; preds = %78
  %82 = load ptr, ptr %12, align 8
  %83 = load ptr, ptr %14, align 8
  %84 = load i32, ptr %15, align 4
  %85 = load i32, ptr %15, align 4
  %86 = call ptr @val_to_str_const(i32 noundef %85, ptr noundef @bfw_comp_headers_comp_meth, ptr noundef @.str.201)
  %87 = call ptr (ptr, ptr, ptr, ptr, ...) @expert_add_info_format(ptr noundef %82, ptr noundef %83, ptr noundef @ei_oran_unsupported_bfw_compression_method, ptr noundef @.str.1264, i32 noundef %84, ptr noundef %86)
  br label %88

88:                                               ; preds = %81, %78, %74
  %89 = load i32, ptr %13, align 4
  store i32 %89, ptr %9, align 4
  call void @llvm.lifetime.end.p0(i64 8, ptr %19) #12
  call void @llvm.lifetime.end.p0(i64 8, ptr %18) #12
  br label %90

90:                                               ; preds = %88, %22
  %91 = load i32, ptr %9, align 4
  ret i32 %91
}