; Function Attrs: null_pointer_is_valid sspstrong uwtable
define internal fastcc noundef i32 @dissect_bfwCompParam(ptr noundef %0, ptr noundef %1, ptr noundef %2, i32 noundef %3, ptr noundef %4, i32 noundef %5, ptr noundef %6, ptr noundef captures(none) initializes((0, 1)) %7) unnamed_addr #0 {
  %9 = icmp eq i32 %5, 0
  br i1 %9, label %10, label %11

10:                                               ; preds = %8
  store i8 1, ptr %7, align 1
  br label %39

11:                                               ; preds = %8
  %12 = load i32, ptr @hf_oran_bfwCompParam, align 4
  %13 = tail call ptr (ptr, i32, ptr, i32, i32, ptr, ptr, ...) @proto_tree_add_string_format(ptr noundef %1, i32 noundef %12, ptr noundef %0, i32 noundef %3, i32 noundef 1, ptr noundef nonnull @.str.1165, ptr noundef nonnull @.str.265)
  %14 = load i32, ptr @ett_oran_bfwcompparam, align 4
  %15 = tail call ptr @proto_item_add_subtree(ptr noundef %13, i32 noundef %14)
  %16 = tail call ptr @val_to_str_const(i32 noundef %5, ptr noundef nonnull @bfw_comp_headers_comp_meth, ptr noundef nonnull @.str.201)
  tail call void (ptr, ptr, ...) @proto_item_append_text(ptr noundef %13, ptr noundef nonnull @.str.1262, ptr noundef %16)
  store i8 0, ptr %7, align 1
  switch i32 %5, label %32 [
    i32 1, label %17
    i32 2, label %22
    i32 3, label %26
  ]

17:                                               ; preds = %11
  %18 = load i32, ptr @hf_oran_exponent, align 4
  %19 = tail call ptr @proto_tree_add_item_ret_uint(ptr noundef %15, i32 noundef %18, ptr noundef %0, i32 noundef %3, i32 noundef 1, i32 noundef 0, ptr noundef %6)
  %20 = load i32, ptr %6, align 4
  tail call void (ptr, ptr, ...) @proto_item_append_text(ptr noundef %13, ptr noundef nonnull @.str.1263, i32 noundef %20)
  store i8 1, ptr %7, align 1
  %21 = add i32 %3, 1
  br label %32

22:                                               ; preds = %11
  %23 = load i32, ptr @hf_oran_blockScaler, align 4
  %24 = tail call ptr @proto_tree_add_item(ptr noundef %15, i32 noundef %23, ptr noundef %0, i32 noundef %3, i32 noundef 1, i32 noundef 0)
  %25 = add i32 %3, 1
  br label %32

26:                                               ; preds = %11
  %27 = load i32, ptr @hf_oran_compBitWidth, align 4
  %28 = tail call ptr @proto_tree_add_item(ptr noundef %15, i32 noundef %27, ptr noundef %0, i32 noundef %3, i32 noundef 1, i32 noundef 0)
  %29 = load i32, ptr @hf_oran_compShift, align 4
  %30 = tail call ptr @proto_tree_add_item(ptr noundef %15, i32 noundef %29, ptr noundef %0, i32 noundef %3, i32 noundef 1, i32 noundef 0)
  %31 = add i32 %3, 1
  br label %32

32:                                               ; preds = %11, %26, %22, %17
  %.038 = phi i32 [ %3, %11 ], [ %31, %26 ], [ %25, %22 ], [ %21, %17 ]
  %33 = load i8, ptr %7, align 1, !range !8, !noundef !9
  %34 = trunc nuw i8 %33 to i1
  %35 = icmp eq ptr %4, null
  %or.cond.not = or i1 %35, %34
  br i1 %or.cond.not, label %39, label %36

36:                                               ; preds = %32
  %37 = tail call ptr @val_to_str_const(i32 noundef %5, ptr noundef nonnull @bfw_comp_headers_comp_meth, ptr noundef nonnull @.str.201)
  %38 = tail call ptr (ptr, ptr, ptr, ptr, ...) @expert_add_info_format(ptr noundef %2, ptr noundef nonnull %4, ptr noundef nonnull @ei_oran_unsupported_bfw_compression_method, ptr noundef nonnull @.str.1264, i32 noundef %5, ptr noundef %37)
  br label %39

39:                                               ; preds = %32, %36, %10
  %.0 = phi i32 [ %3, %10 ], [ %.038, %36 ], [ %.038, %32 ]
  ret i32 %.0
}